Certificate:
    Data:
        Version: 3 (0x2)
        Serial Number: 17098821465950901320 (0xed4b3787a3d3d448)
    Signature Algorithm: sha256WithRSAEncryption
        Issuer: C=JP, CN=Tomohiko Sumi/emailAddress=SumiTomohiko@neko-daisuki.ddo.jp
        Validity
            Not Before: Nov 27 13:45:35 2016 GMT
            Not After : Nov 27 13:45:35 2017 GMT
        Subject: C=JP, CN=Tomohiko Sumi/emailAddress=SumiTomohiko@neko-daisuki.ddo.jp
        Subject Public Key Info:
            Public Key Algorithm: rsaEncryption
                Public-Key: (2048 bit)
                Modulus:
                    00:b7:2f:d7:f8:16:cf:42:97:25:a1:c1:ce:c7:dc:
                    fa:88:7d:8d:e2:66:62:3f:e4:7b:5f:cc:8f:70:13:
                    c8:f9:b9:ea:05:ef:11:99:fd:df:ed:e3:b6:25:de:
                    0b:21:91:a4:69:bf:26:94:46:86:16:7e:5d:3e:b4:
                    9f:b0:f3:cc:1c:4b:74:7a:66:60:b1:21:4d:7e:26:
                    b9:a2:df:33:c8:cd:b7:c9:98:c4:ba:c3:5d:d4:17:
                    3c:3a:35:8d:3e:ff:48:8d:91:43:c7:73:9c:41:f9:
                    f1:40:69:3a:27:d8:3e:12:5a:8a:07:3d:56:e9:30:
                    07:90:70:e2:5d:45:e5:4d:40:19:7e:64:ef:92:1b:
                    39:83:e5:3e:7b:c5:6c:b3:87:63:a6:5d:28:59:48:
                    33:71:a5:6e:21:fd:23:78:6b:56:61:4f:ac:22:ca:
                    9b:e5:1d:ba:0d:12:b3:a4:99:eb:1d:de:64:f7:f7:
                    a2:b9:18:e9:9a:62:2f:b7:69:d0:79:95:43:71:21:
                    4e:e4:2c:74:9b:fc:0e:a9:84:5d:2e:48:ca:1f:68:
                    30:0f:3c:ed:53:21:2b:a9:00:9d:31:2c:d3:31:dc:
                    fd:a8:2e:df:a8:b5:8a:d6:b7:47:43:08:cc:59:05:
                    f7:04:2a:e3:34:ef:9b:64:42:99:5f:dd:3b:db:74:
                    5d:47
                Exponent: 65537 (0x10001)
        X509v3 extensions:
            X509v3 Basic Constraints: 
                CA:TRUE
            Netscape Cert Type: 
                SSL Server
            X509v3 Subject Key Identifier: 
                49:FB:6A:94:AA:03:D2:29:6F:7A:13:FC:A2:41:83:13:0E:D4:0E:F0
            X509v3 Authority Key Identifier: 
                keyid:11:DE:CC:E0:B2:34:F6:16:A9:5B:50:07:30:B6:35:C8:88:4C:68:34

    Signature Algorithm: sha256WithRSAEncryption
         9e:c0:59:19:54:17:23:d9:3c:d3:9d:6b:65:8a:c1:dc:5a:1d:
         f4:65:3e:ef:c7:3b:a5:14:9c:6f:8e:72:8c:3d:63:38:4d:6f:
         83:bc:c5:2f:a9:de:8c:5f:d8:fc:6b:82:33:e6:e8:22:76:50:
         c5:f7:82:1e:11:18:28:4e:58:b8:6b:bd:04:4b:1a:bb:09:87:
         0e:07:82:ca:d8:ef:b8:43:07:28:48:4b:5e:c9:5e:f4:29:10:
         1c:7c:2e:ec:65:b6:51:4e:3c:d8:62:23:2a:20:bb:70:e1:d9:
         6f:c8:ae:b7:b6:6a:b0:be:83:ac:d9:d0:f2:12:0c:2a:04:1d:
         fa:0d:3c:3d:1d:cc:02:b2:28:00:9a:39:19:e1:86:0c:66:3b:
         9b:99:31:b0:d5:d6:c1:32:a7:cc:1d:41:65:ee:7f:07:4f:40:
         4f:b6:06:6a:8d:da:d1:00:0e:e7:40:a8:82:3f:15:3d:23:34:
         21:ee:8c:3e:75:e0:7d:12:e1:1b:ea:95:19:e3:30:fc:f5:c5:
         ba:03:f4:0b:ca:cf:d1:53:84:3e:b7:5a:2d:88:32:b3:9d:df:
         1f:0d:b3:69:0b:0a:e6:ae:1e:55:71:3d:fd:25:65:3f:00:9f:
         db:96:47:b0:94:41:2d:d3:c3:49:cf:6e:6e:58:4e:36:fa:c8:
         09:04:4b:c8
-----BEGIN CERTIFICATE-----
MIIDkjCCAnqgAwIBAgIJAO1LN4ej09RIMA0GCSqGSIb3DQEBCwUAMFYxCzAJBgNV
BAYTAkpQMRYwFAYDVQQDDA1Ub21vaGlrbyBTdW1pMS8wLQYJKoZIhvcNAQkBFiBT
dW1pVG9tb2hpa29AbmVrby1kYWlzdWtpLmRkby5qcDAeFw0xNjExMjcxMzQ1MzVa
Fw0xNzExMjcxMzQ1MzVaMFYxCzAJBgNVBAYTAkpQMRYwFAYDVQQDDA1Ub21vaGlr
byBTdW1pMS8wLQYJKoZIhvcNAQkBFiBTdW1pVG9tb2hpa29AbmVrby1kYWlzdWtp
LmRkby5qcDCCASIwDQYJKoZIhvcNAQEBBQADggEPADCCAQoCggEBALcv1/gWz0KX
JaHBzsfc+oh9jeJmYj/ke1/Mj3ATyPm56gXvEZn93+3jtiXeCyGRpGm/JpRGhhZ+
XT60n7DzzBxLdHpmYLEhTX4muaLfM8jNt8mYxLrDXdQXPDo1jT7/SI2RQ8dznEH5
8UBpOifYPhJaigc9VukwB5Bw4l1F5U1AGX5k75IbOYPlPnvFbLOHY6ZdKFlIM3Gl
biH9I3hrVmFPrCLKm+Udug0Ss6SZ6x3eZPf3orkY6ZpiL7dp0HmVQ3EhTuQsdJv8
DqmEXS5Iyh9oMA887VMhK6kAnTEs0zHc/agu36i1ita3R0MIzFkF9wQq4zTvm2RC
mV/dO9t0XUcCAwEAAaNjMGEwDAYDVR0TBAUwAwEB/zARBglghkgBhvhCAQEEBAMC
BkAwHQYDVR0OBBYEFEn7apSqA9Ipb3oT/KJBgxMO1A7wMB8GA1UdIwQYMBaAFBHe
zOCyNPYWqVtQBzC2NciITGg0MA0GCSqGSIb3DQEBCwUAA4IBAQCewFkZVBcj2TzT
nWtlisHcWh30ZT7vxzulFJxvjnKMPWM4TW+DvMUvqd6MX9j8a4Iz5ugidlDF94Ie
ERgoTli4a70ESxq7CYcOB4LK2O+4QwcoSEteyV70KRAcfC7sZbZRTjzYYiMqILtw
4dlvyK63tmqwvoOs2dDyEgwqBB36DTw9HcwCsigAmjkZ4YYMZjubmTGw1dbBMqfM
HUFl7n8HT0BPtgZqjdrRAA7nQKiCPxU9IzQh7ow+deB9EuEb6pUZ4zD89cW6A/QL
ys/RU4Q+t1otiDKznd8fDbNpCwrmrh5VcT39JWU/AJ/blkewlEEt08NJz25uWE42
+sgJBEvI
-----END CERTIFICATE-----
